; Function Attrs: mustprogress nounwind uwtable
define dso_local void @_ZN5clang7CodeGen15ConstantEmitterD2Ev(ptr noundef nonnull align 8 dereferenceable(112) %0) unnamed_addr #1 align 2 {
  %2 = getelementptr inbounds nuw i8, ptr %0, i64 32
  %3 = tail call noundef i64 @_ZNK4llvm15SmallVectorBaseIjE4sizeEv(ptr noundef nonnull align 8 dereferenceable(80) %2) #20
  %4 = load ptr, ptr %2, align 8
  %5 = getelementptr inbounds nuw i8, ptr %0, i64 48
  %6 = icmp eq ptr %4, %5
  br i1 %6, label %_ZN4llvm11SmallVectorISt4pairIPNS_8ConstantEPNS_14GlobalVariableEELj4EED2Ev.exit, label %7

7:                                                ; preds = %1
  tail call void @free(ptr noundef %4) #20
  br label %_ZN4llvm11SmallVectorISt4pairIPNS_8ConstantEPNS_14GlobalVariableEELj4EED2Ev.exit

_ZN4llvm11SmallVectorISt4pairIPNS_8ConstantEPNS_14GlobalVariableEELj4EED2Ev.exit: ; preds = %1, %7
  ret void
}